; Function Attrs: nounwind uwtable
define range(i32 0, 2) i32 @Abc_NtkFunctionalIso(ptr noundef %0, i32 noundef %1, i32 noundef %2, i32 noundef %3) local_unnamed_addr #0 {
  %.val = load i32, ptr %0, align 8, !tbaa !32
  %.not = icmp eq i32 %.val, 3
  br i1 %.not, label %5, label %18

5:                                                ; preds = %4
  %6 = icmp slt i32 %1, 0
  br i1 %6, label %Abc_NtkFunctionalIsoInt.exit, label %7

7:                                                ; preds = %5
  %8 = getelementptr i8, ptr %0, i64 64
  %.val18.i = load ptr, ptr %8, align 8, !tbaa !48
  %9 = getelementptr i8, ptr %.val18.i, i64 4
  %.val18.val.i = load i32, ptr %9, align 4, !tbaa !41
  %.not.i = icmp slt i32 %1, %.val18.val.i
  %10 = icmp sgt i32 %2, -1
  %or.cond.not21.i = and i1 %10, %.not.i
  %.not17.i = icmp samesign ult i32 %2, %.val18.val.i
  %or.cond19.i = select i1 %or.cond.not21.i, i1 %.not17.i, i1 false
  br i1 %or.cond19.i, label %11, label %Abc_NtkFunctionalIsoInt.exit

11:                                               ; preds = %7
  %12 = tail call ptr @Abc_NtkFunctionalIsoGia(ptr noundef nonnull %0, i32 noundef %1, i32 noundef %2, i32 noundef %3)
  %13 = icmp eq ptr %12, null
  br i1 %13, label %Abc_NtkFunctionalIsoInt.exit, label %14

14:                                               ; preds = %11
  %15 = tail call i32 @Cec_ManVerifySimple(ptr noundef nonnull %12) #23
  tail call void @Gia_ManStop(ptr noundef nonnull %12) #23
  %16 = icmp eq i32 %15, 1
  %17 = zext i1 %16 to i32
  br label %Abc_NtkFunctionalIsoInt.exit

18:                                               ; preds = %4
  %19 = tail call ptr @Abc_NtkStrash(ptr noundef nonnull %0, i32 noundef 0, i32 noundef 0, i32 noundef 0) #23
  %20 = icmp slt i32 %1, 0
  br i1 %20, label %Abc_NtkFunctionalIsoInt.exit19, label %21

21:                                               ; preds = %18
  %22 = getelementptr i8, ptr %19, i64 64
  %.val18.i12 = load ptr, ptr %22, align 8, !tbaa !48
  %23 = getelementptr i8, ptr %.val18.i12, i64 4
  %.val18.val.i13 = load i32, ptr %23, align 4, !tbaa !41
  %.not.i14 = icmp slt i32 %1, %.val18.val.i13
  %24 = icmp sgt i32 %2, -1
  %or.cond.not21.i15 = and i1 %24, %.not.i14
  %.not17.i16 = icmp samesign ult i32 %2, %.val18.val.i13
  %or.cond19.i17 = select i1 %or.cond.not21.i15, i1 %.not17.i16, i1 false
  br i1 %or.cond19.i17, label %25, label %Abc_NtkFunctionalIsoInt.exit19

25:                                               ; preds = %21
  %26 = tail call ptr @Abc_NtkFunctionalIsoGia(ptr noundef nonnull %19, i32 noundef %1, i32 noundef %2, i32 noundef %3)
  %27 = icmp eq ptr %26, null
  br i1 %27, label %Abc_NtkFunctionalIsoInt.exit19, label %28

28:                                               ; preds = %25
  %29 = tail call i32 @Cec_ManVerifySimple(ptr noundef nonnull %26) #23
  tail call void @Gia_ManStop(ptr noundef nonnull %26) #23
  %30 = icmp eq i32 %29, 1
  %31 = zext i1 %30 to i32
  br label %Abc_NtkFunctionalIsoInt.exit19

Abc_NtkFunctionalIsoInt.exit19:                   ; preds = %18, %21, %25, %28
  %.0.i18 = phi i32 [ %31, %28 ], [ 0, %21 ], [ 0, %18 ], [ 0, %25 ]
  tail call void @Abc_NtkDelete(ptr noundef %19) #23
  br label %Abc_NtkFunctionalIsoInt.exit

Abc_NtkFunctionalIsoInt.exit:                     ; preds = %14, %11, %7, %5, %Abc_NtkFunctionalIsoInt.exit19
  %.0 = phi i32 [ %.0.i18, %Abc_NtkFunctionalIsoInt.exit19 ], [ %17, %14 ], [ 0, %7 ], [ 0, %5 ], [ 0, %11 ]
  ret i32 %.0
}